Certificate:
    Data:
        Version: 3 (0x2)
        Serial Number: 1 (0x1)
        Signature Algorithm: sha256WithRSAEncryption
        Issuer: C=ZG, ST=ZheJiang, L=HangZhou, O=HJD, OU=Test, CN=localhost/emailAddress=huangjiandong@test.com
        Validity
            Not Before: Dec  2 12:44:21 2023 GMT
            Not After : Dec  1 12:44:21 2024 GMT
        Subject: C=ZG, ST=ZheJiang, O=HJD, OU=Test, CN=localhost/emailAddress=huangjiandong@test.com
        Subject Public Key Info:
            Public Key Algorithm: rsaEncryption
                Public-Key: (4096 bit)
                Modulus:
                    00:b5:3c:88:6e:c2:f2:1f:03:74:fb:1d:d1:3a:e9:
                    7d:41:c5:08:1a:a5:2e:ca:69:48:5c:fc:0b:d4:03:
                    d0:4b:da:be:c5:7e:84:f3:40:ec:9c:76:55:4e:09:
                    8f:e5:fe:a3:83:79:0c:f9:ef:cf:33:91:be:82:63:
                    1b:66:53:c9:e7:b3:4a:f6:91:e9:f5:a2:f8:9b:17:
                    5b:85:2a:ca:f1:7e:7c:11:7f:e7:ee:47:8b:00:a7:
                    9b:f9:fe:a7:e8:69:11:df:49:f2:52:57:22:20:82:
                    ea:0f:c0:d9:eb:67:57:ba:e7:51:20:a1:f7:65:e6:
                    07:79:2e:fd:ab:01:b7:bf:1e:70:d7:a1:50:41:9d:
                    60:ae:20:b0:ad:c7:1b:d4:8c:09:20:99:2e:d6:69:
                    3a:30:57:45:a9:5f:9a:b4:0e:4c:7b:c6:51:a2:fd:
                    90:b4:ee:16:3f:3f:01:cc:c9:4c:84:e4:16:5c:60:
                    2a:64:bc:9d:d3:42:a4:51:91:89:f9:1b:62:71:29:
                    42:70:d3:ae:ad:ea:a2:13:a4:45:f4:65:73:d4:4e:
                    1d:e2:d4:da:b8:59:7d:b6:54:39:44:e5:66:53:3a:
                    62:99:90:b5:2a:53:1e:19:6b:c2:9c:0d:a3:fa:a4:
                    bb:f1:a1:39:e0:15:72:6e:b8:f5:dc:70:1f:71:74:
                    55:e2:04:ad:6d:4e:de:f7:f9:27:a7:2a:fb:58:58:
                    89:15:37:1f:c7:64:63:84:75:e0:8f:e9:11:e4:7d:
                    8e:80:3b:d0:7c:1e:9a:4f:8c:66:f4:fe:d6:dc:9e:
                    85:31:cf:4d:2b:2b:41:b4:84:a3:5d:23:6f:b0:8a:
                    16:6f:de:2d:cf:6d:2c:ee:6c:76:27:20:9f:be:a6:
                    37:cb:ce:54:70:8b:fd:d2:5a:e3:fa:40:f1:fa:f2:
                    13:37:fe:78:84:86:c3:31:b0:33:7d:ec:15:d3:40:
                    cb:77:2b:7b:7c:f1:89:b5:c2:e3:b3:a0:f5:76:34:
                    00:e2:e6:1b:f3:24:81:4e:b8:f8:45:e0:8a:7b:af:
                    8d:a1:b8:2d:15:31:02:cc:09:a0:cf:e6:27:01:05:
                    da:3d:46:d8:34:a4:e8:25:49:96:82:ab:eb:89:34:
                    65:9b:ee:d1:86:06:22:0d:4d:d2:bf:9e:12:0f:92:
                    0c:b5:ea:86:58:a2:af:22:b6:f9:4f:eb:17:10:5a:
                    73:aa:62:a3:b9:a1:ca:9e:a8:13:dd:b9:e7:c2:68:
                    23:70:57:35:b1:a7:73:a3:eb:c7:f2:9d:5f:10:bf:
                    5e:ce:f0:4c:12:20:8d:9d:1d:d5:4c:32:01:2a:b6:
                    44:7c:bb:9d:5d:46:b7:c3:29:08:cc:e6:ca:eb:18:
                    17:2b:03
                Exponent: 65537 (0x10001)
        X509v3 extensions:
            X509v3 Basic Constraints: 
                CA:FALSE
            X509v3 Subject Key Identifier: 
                07:F2:C5:1D:F9:28:9E:16:1D:5F:4A:24:A4:0E:6F:45:60:1B:10:54
            X509v3 Authority Key Identifier: 
                E4:36:C6:99:40:9A:45:B3:E6:44:0E:25:7C:E4:CC:CC:EA:C3:79:71
    Signature Algorithm: sha256WithRSAEncryption
    Signature Value:
        97:4f:85:d9:75:95:61:15:f9:46:ff:99:a3:78:2e:fb:76:b0:
        ab:86:46:69:9d:d5:0e:87:49:5c:c5:28:c4:5b:b8:08:74:be:
        e7:5b:1d:a3:94:49:02:10:c4:50:71:76:bc:7d:2c:a4:c5:a3:
        3d:84:45:4f:3d:4f:6a:c7:87:fb:1f:e6:f0:07:f7:69:e0:61:
        18:42:06:5e:43:4b:57:02:82:57:f0:6e:bc:43:79:80:89:4c:
        34:6c:0d:36:28:0f:79:05:e3:c7:36:f5:15:3d:80:00:37:e6:
        08:c6:0e:b7:c4:ba:94:80:11:52:54:7b:d0:c7:a8:27:0c:29:
        0f:2f:dc:f3:24:3c:71:ff:ed:30:ad:6c:55:79:d9:da:7a:c2:
        b9:ae:eb:a0:da:31:46:db:22:bd:3c:50:21:e8:ab:f1:f4:cb:
        42:99:05:b7:69:a4:6b:a2:92:2f:43:5f:b4:48:f6:7a:83:54:
        be:22:38:ee:82:66:48:53:15:cc:87:46:a2:3e:91:15:c9:c5:
        a3:8c:c7:5f:83:8c:09:7e:23:9d:8d:a0:99:30:48:ba:51:cb:
        e7:03:53:b0:4c:e5:eb:21:1f:e2:1d:fe:8f:42:14:77:27:d3:
        4c:99:01:af:a9:a6:26:ae:06:99:8c:09:8d:0d:af:31:33:70:
        cf:a4:e6:9b:0e:f5:49:ea:77:01:b9:ab:cc:20:bf:29:fa:e7:
        f8:81:17:6f:a5:a2:ab:a9:98:d0:39:60:23:bc:de:6d:03:dc:
        ac:2b:4f:b1:7e:91:55:27:b0:39:7e:bf:f9:b7:5d:25:28:d4:
        17:d2:1c:22:67:94:7e:d0:21:a0:3e:fb:20:3b:df:d7:72:96:
        3e:28:1d:00:ec:7c:bd:f3:e0:46:47:18:17:a6:74:f7:cb:d5:
        40:2f:74:f8:7e:f3:63:83:6c:2a:fd:99:a5:3a:b8:7e:4c:e5:
        62:76:ab:b3:51:2a:3f:11:bc:b0:cf:7e:49:70:6e:44:17:27:
        b5:ad:7a:ee:dd:7d:33:1f:0d:4d:57:49:39:c3:9e:e6:bf:05:
        1d:28:5f:1f:51:36:e8:5c:dd:61:70:67:f0:4e:56:4c:65:b6:
        32:ce:40:6d:3b:a8:2b:03:52:0e:1f:79:0e:ae:ef:8c:0d:57:
        ce:e5:0f:c2:44:36:05:1b:ae:bd:79:50:75:91:6d:5b:40:a4:
        15:23:fb:16:e6:51:4c:be:cf:d8:b9:bb:eb:f0:ea:45:a4:8e:
        92:71:ad:9a:55:b7:0b:1e:e7:9b:60:69:f0:38:d7:9c:d2:57:
        6f:75:09:27:ea:03:7d:f1:d9:8a:58:23:81:ea:fe:9a:84:4d:
        eb:08:65:ef:d6:2c:8c:74
-----BEGIN CERTIFICATE-----
MIIF0jCCA7qgAwIBAgIBATANBgkqhkiG9w0BAQsFADCBjjELMAkGA1UEBhMCWkcx
ETAPBgNVBAgMCFpoZUppYW5nMREwDwYDVQQHDAhIYW5nWmhvdTEMMAoGA1UECgwD
SEpEMQ0wCwYDVQQLDARUZXN0MRIwEAYDVQQDDAlsb2NhbGhvc3QxKDAmBgkqhkiG
9w0BCQEWGWh1YW5namlhbmRvbmdAbWVpZGVuZy5uZXQwHhcNMjMxMjAyMTI0NDIx
WhcNMjQxMjAxMTI0NDIxWjB7MQswCQYDVQQGEwJaRzERMA8GA1UECAwIWmhlSmlh
bmcxDDAKBgNVBAoMA0hKRDENMAsGA1UECwwEVGVzdDESMBAGA1UEAwwJbG9jYWxo
b3N0MSgwJgYJKoZIhvcNAQkBFhlodWFuZ2ppYW5kb25nQG1laWRlbmcubmV0MIIC
IjANBgkqhkiG9w0BAQEFAAOCAg8AMIICCgKCAgEAtTyIbsLyHwN0+x3ROul9QcUI
GqUuymlIXPwL1APQS9q+xX6E80DsnHZVTgmP5f6jg3kM+e/PM5G+gmMbZlPJ57NK
9pHp9aL4mxdbhSrK8X58EX/n7keLAKeb+f6n6GkR30nyUlciIILqD8DZ62dXuudR
IKH3ZeYHeS79qwG3vx5w16FQQZ1griCwrccb1IwJIJku1mk6MFdFqV+atA5Me8ZR
ov2QtO4WPz8BzMlMhOQWXGAqZLyd00KkUZGJ+RticSlCcNOureqiE6RF9GVz1E4d
4tTauFl9tlQ5ROVmUzpimZC1KlMeGWvCnA2j+qS78aE54BVybrj13HAfcXRV4gSt
bU7e9/knpyr7WFiJFTcfx2RjhHXgj+kR5H2OgDvQfB6aT4xm9P7W3J6FMc9NKytB
tISjXSNvsIoWb94tz20s7mx2JyCfvqY3y85UcIv90lrj+kDx+vITN/54hIbDMbAz
fewV00DLdyt7fPGJtcLjs6D1djQA4uYb8ySBTrj4ReCKe6+NobgtFTECzAmgz+Yn
AQXaPUbYNKToJUmWgqvriTRlm+7RhgYiDU3Sv54SD5IMteqGWKKvIrb5T+sXEFpz
qmKjuaHKnqgT3bnnwmgjcFc1sadzo+vH8p1fEL9ezvBMEiCNnR3VTDIBKrZEfLud
XUa3wykIzObK6xgXKwMCAwEAAaNNMEswCQYDVR0TBAIwADAdBgNVHQ4EFgQUB/LF
HfkonhYdX0okpA5vRWAbEFQwHwYDVR0jBBgwFoAU5DbGmUCaRbPmRA4lfOTMzOrD
eXEwDQYJKoZIhvcNAQELBQADggIBAJdPhdl1lWEV+Ub/maN4Lvt2sKuGRmmd1Q6H
SVzFKMRbuAh0vudbHaOUSQIQxFBxdrx9LKTFoz2ERU89T2rHh/sf5vAH92ngYRhC
Bl5DS1cCglfwbrxDeYCJTDRsDTYoD3kF48c29RU9gAA35gjGDrfEupSAEVJUe9DH
qCcMKQ8v3PMkPHH/7TCtbFV52dp6wrmu66DaMUbbIr08UCHoq/H0y0KZBbdppGui
ki9DX7RI9nqDVL4iOO6CZkhTFcyHRqI+kRXJxaOMx1+DjAl+I52NoJkwSLpRy+cD
U7BM5eshH+Id/o9CFHcn00yZAa+ppiauBpmMCY0NrzEzcM+k5psO9UnqdwG5q8wg
vyn65/iBF2+loqupmNA5YCO83m0D3KwrT7F+kVUnsDl+v/m3XSUo1BfSHCJnlH7Q
IaA++yA739dylj4oHQDsfL3z4EZHGBemdPfL1UAvdPh+82ODbCr9maU6uH5M5WJ2
q7NRKj8RvLDPfklwbkQXJ7Wteu7dfTMfDU1XSTnDnua/BR0oXx9RNuhc3WFwZ/BO
VkxltjLOQG07qCsDUg4feQ6u74wNV87lD8JENgUbrr15UHWRbVtApBUj+xbmUUy+
z9i5u+vw6kWkjpJxrZpVtwse55tgafA415zSV291CSfqA33x2YpYI4Hq/pqETesI
Ze/WLIx0
-----END CERTIFICATE-----
